target datalayout = "e-m:e-p270:32:32-p271:32:32-p272:64:64-i64:64-i128:128-f80:128-n8:16:32:64-S128"
target triple = "x86_64-pc-linux-gnu"

%struct.stat = type { i64, i64, i64, i32, i32, i32, i32, i64, i64, i64, i64, i64, i64, i64, i64, i64, i64, [3 x i64] }
%struct.dirent = type { i64, i64, i16, i8, [256 x i8] }

@.str.40 = private unnamed_addr constant [6 x i8] c"/proc\00", align 1
@.str.41 = private unnamed_addr constant [3 x i8] c"%d\00", align 1
@.str.42 = private unnamed_addr constant [14 x i8] c"/proc/%d/stat\00", align 1
@.str.43 = private unnamed_addr constant [2 x i8] c"r\00", align 1
@.str.44 = private unnamed_addr constant [7 x i8] c"%*s %d\00", align 1
@.str.45 = private unnamed_addr constant [16 x i8] c"ps axo pid,ppid\00", align 1
@.str.46 = private unnamed_addr constant [8 x i8] c"%*[^\0A]\0A\00", align 1
@.str.47 = private unnamed_addr constant [7 x i8] c"%d %d\0A\00", align 1

; Function Attrs: nounwind uwtable
define internal void @kwsysProcessKill(i32 noundef %0) #0 {
  %2 = alloca i32, align 4
  %3 = alloca ptr, align 8
  %4 = alloca [4096 x i8], align 16
  %5 = alloca [1025 x i8], align 16
  %6 = alloca ptr, align 8
  %7 = alloca i32, align 4
  %8 = alloca %struct.stat, align 8
  %9 = alloca ptr, align 8
  %10 = alloca i64, align 8
  %11 = alloca ptr, align 8
  %12 = alloca i32, align 4
  %13 = alloca ptr, align 8
  %14 = alloca i32, align 4
  %15 = alloca i32, align 4
  store i32 %0, ptr %2, align 4, !tbaa !20
  call void @llvm.lifetime.start.p0(i64 8, ptr %3) #11
  %16 = load i32, ptr %2, align 4, !tbaa !20
  %17 = call i32 @kill(i32 noundef %16, i32 noundef 19) #11
  %18 = call ptr @opendir(ptr noundef @.str.40)
  store ptr %18, ptr %3, align 8, !tbaa !144
  %19 = icmp ne ptr %18, null
  br i1 %19, label %20, label %85

20:                                               ; preds = %1
  call void @llvm.lifetime.start.p0(i64 4096, ptr %4) #11
  call void @llvm.lifetime.start.p0(i64 1025, ptr %5) #11
  call void @llvm.lifetime.start.p0(i64 8, ptr %6) #11
  %21 = load ptr, ptr %3, align 8, !tbaa !144
  %22 = call ptr @readdir(ptr noundef %21)
  store ptr %22, ptr %6, align 8, !tbaa !146
  br label %23

23:                                               ; preds = %79, %20
  %24 = load ptr, ptr %6, align 8, !tbaa !146
  %25 = icmp ne ptr %24, null
  br i1 %25, label %26, label %82

26:                                               ; preds = %23
  call void @llvm.lifetime.start.p0(i64 4, ptr %7) #11
  %27 = load ptr, ptr %6, align 8, !tbaa !146
  %28 = getelementptr inbounds nuw %struct.dirent, ptr %27, i32 0, i32 4
  %29 = getelementptr inbounds [256 x i8], ptr %28, i64 0, i64 0
  %30 = call i32 (ptr, ptr, ...) @__isoc99_sscanf(ptr noundef %29, ptr noundef @.str.41, ptr noundef %7) #11
  %31 = icmp eq i32 %30, 1
  br i1 %31, label %32, label %78

32:                                               ; preds = %26
  %33 = load i32, ptr %7, align 4, !tbaa !20
  %34 = icmp ne i32 %33, 0
  br i1 %34, label %35, label %78

35:                                               ; preds = %32
  call void @llvm.lifetime.start.p0(i64 144, ptr %8) #11
  %36 = getelementptr inbounds [4096 x i8], ptr %4, i64 0, i64 0
  %37 = load i32, ptr %7, align 4, !tbaa !20
  %38 = call i32 (ptr, i64, ptr, ...) @snprintf(ptr noundef %36, i64 noundef 4096, ptr noundef @.str.42, i32 noundef %37) #11
  %39 = getelementptr inbounds [4096 x i8], ptr %4, i64 0, i64 0
  %40 = call i32 @stat(ptr noundef %39, ptr noundef %8) #11
  %41 = icmp eq i32 %40, 0
  br i1 %41, label %42, label %77

42:                                               ; preds = %35
  call void @llvm.lifetime.start.p0(i64 8, ptr %9) #11
  %43 = getelementptr inbounds [4096 x i8], ptr %4, i64 0, i64 0
  %44 = call noalias ptr @fopen(ptr noundef %43, ptr noundef @.str.43)
  store ptr %44, ptr %9, align 8, !tbaa !148
  %45 = load ptr, ptr %9, align 8, !tbaa !148
  %46 = icmp ne ptr %45, null
  br i1 %46, label %47, label %76

47:                                               ; preds = %42
  call void @llvm.lifetime.start.p0(i64 8, ptr %10) #11
  %48 = getelementptr inbounds [1025 x i8], ptr %5, i64 0, i64 0
  %49 = load ptr, ptr %9, align 8, !tbaa !148
  %50 = call i64 @fread(ptr noundef %48, i64 noundef 1, i64 noundef 1024, ptr noundef %49)
  store i64 %50, ptr %10, align 8, !tbaa !49
  %51 = load ptr, ptr %9, align 8, !tbaa !148
  %52 = call i32 @fclose(ptr noundef %51)
  %53 = load i64, ptr %10, align 8, !tbaa !49
  %54 = getelementptr inbounds nuw [1025 x i8], ptr %5, i64 0, i64 %53
  store i8 0, ptr %54, align 1, !tbaa !86
  %55 = load i64, ptr %10, align 8, !tbaa !49
  %56 = icmp ugt i64 %55, 0
  br i1 %56, label %57, label %75

57:                                               ; preds = %47
  call void @llvm.lifetime.start.p0(i64 8, ptr %11) #11
  %58 = getelementptr inbounds [1025 x i8], ptr %5, i64 0, i64 0
  %59 = call ptr @strrchr(ptr noundef %58, i32 noundef 41) #13
  store ptr %59, ptr %11, align 8, !tbaa !42
  call void @llvm.lifetime.start.p0(i64 4, ptr %12) #11
  %60 = load ptr, ptr %11, align 8, !tbaa !42
  %61 = icmp ne ptr %60, null
  br i1 %61, label %62, label %74

62:                                               ; preds = %57
  %63 = load ptr, ptr %11, align 8, !tbaa !42
  %64 = getelementptr inbounds i8, ptr %63, i64 1
  %65 = call i32 (ptr, ptr, ...) @__isoc99_sscanf(ptr noundef %64, ptr noundef @.str.44, ptr noundef %12) #11
  %66 = icmp eq i32 %65, 1
  br i1 %66, label %67, label %74

67:                                               ; preds = %62
  %68 = load i32, ptr %12, align 4, !tbaa !20
  %69 = load i32, ptr %2, align 4, !tbaa !20
  %70 = icmp eq i32 %68, %69
  br i1 %70, label %71, label %73

71:                                               ; preds = %67
  %72 = load i32, ptr %7, align 4, !tbaa !20
  call void @kwsysProcessKill(i32 noundef %72)
  br label %73

73:                                               ; preds = %71, %67
  br label %74

74:                                               ; preds = %73, %62, %57
  call void @llvm.lifetime.end.p0(i64 4, ptr %12) #11
  call void @llvm.lifetime.end.p0(i64 8, ptr %11) #11
  br label %75

75:                                               ; preds = %74, %47
  call void @llvm.lifetime.end.p0(i64 8, ptr %10) #11
  br label %76

76:                                               ; preds = %75, %42
  call void @llvm.lifetime.end.p0(i64 8, ptr %9) #11
  br label %77

77:                                               ; preds = %76, %35
  call void @llvm.lifetime.end.p0(i64 144, ptr %8) #11
  br label %78

78:                                               ; preds = %77, %32, %26
  call void @llvm.lifetime.end.p0(i64 4, ptr %7) #11
  br label %79

79:                                               ; preds = %78
  %80 = load ptr, ptr %3, align 8, !tbaa !144
  %81 = call ptr @readdir(ptr noundef %80)
  store ptr %81, ptr %6, align 8, !tbaa !146
  br label %23, !llvm.loop !150

82:                                               ; preds = %23
  %83 = load ptr, ptr %3, align 8, !tbaa !144
  %84 = call i32 @closedir(ptr noundef %83)
  call void @llvm.lifetime.end.p0(i64 8, ptr %6) #11
  call void @llvm.lifetime.end.p0(i64 1025, ptr %5) #11
  call void @llvm.lifetime.end.p0(i64 4096, ptr %4) #11
  br label %113

85:                                               ; preds = %1
  call void @llvm.lifetime.start.p0(i64 8, ptr %13) #11
  %86 = call noalias ptr @popen(ptr noundef @.str.45, ptr noundef @.str.43)
  store ptr %86, ptr %13, align 8, !tbaa !148
  %87 = load ptr, ptr %13, align 8, !tbaa !148
  %88 = icmp ne ptr %87, null
  br i1 %88, label %89, label %106

89:                                               ; preds = %85
  %90 = load ptr, ptr %13, align 8, !tbaa !148
  %91 = call i32 (ptr, ptr, ...) @__isoc99_fscanf(ptr noundef %90, ptr noundef @.str.46)
  %92 = icmp ne i32 %91, -1
  br i1 %92, label %93, label %106

93:                                               ; preds = %89
  call void @llvm.lifetime.start.p0(i64 4, ptr %14) #11
  call void @llvm.lifetime.start.p0(i64 4, ptr %15) #11
  br label %94

94:                                               ; preds = %104, %93
  %95 = load ptr, ptr %13, align 8, !tbaa !148
  %96 = call i32 (ptr, ptr, ...) @__isoc99_fscanf(ptr noundef %95, ptr noundef @.str.47, ptr noundef %14, ptr noundef %15)
  %97 = icmp eq i32 %96, 2
  br i1 %97, label %98, label %105

98:                                               ; preds = %94
  %99 = load i32, ptr %15, align 4, !tbaa !20
  %100 = load i32, ptr %2, align 4, !tbaa !20
  %101 = icmp eq i32 %99, %100
  br i1 %101, label %102, label %104

102:                                              ; preds = %98
  %103 = load i32, ptr %14, align 4, !tbaa !20
  call void @kwsysProcessKill(i32 noundef %103)
  br label %104

104:                                              ; preds = %102, %98
  br label %94, !llvm.loop !151

105:                                              ; preds = %94
  call void @llvm.lifetime.end.p0(i64 4, ptr %15) #11
  call void @llvm.lifetime.end.p0(i64 4, ptr %14) #11
  br label %106

106:                                              ; preds = %105, %89, %85
  %107 = load ptr, ptr %13, align 8, !tbaa !148
  %108 = icmp ne ptr %107, null
  br i1 %108, label %109, label %112

109:                                              ; preds = %106
  %110 = load ptr, ptr %13, align 8, !tbaa !148
  %111 = call i32 @pclose(ptr noundef %110)
  br label %112

112:                                              ; preds = %109, %106
  call void @llvm.lifetime.end.p0(i64 8, ptr %13) #11
  br label %113

113:                                              ; preds = %112, %82
  %114 = load i32, ptr %2, align 4, !tbaa !20
  %115 = call i32 @kill(i32 noundef %114, i32 noundef 9) #11
  call void @llvm.lifetime.end.p0(i64 8, ptr %3) #11
  ret void
}