; Function Attrs: nounwind uwtable
define internal fastcc void @kwsysProcessKill(i32 noundef %0) unnamed_addr #4 {
  %2 = alloca [4096 x i8], align 16
  %3 = alloca [1025 x i8], align 16
  %4 = alloca i32, align 4
  %5 = alloca %struct.stat, align 8
  %6 = alloca i32, align 4
  %7 = alloca i32, align 4
  %8 = alloca i32, align 4
  %9 = tail call i32 @kill(i32 noundef %0, i32 noundef 19) #25
  %10 = tail call ptr @opendir(ptr noundef nonnull @.str.40)
  %.not = icmp eq ptr %10, null
  br i1 %.not, label %43, label %11

11:                                               ; preds = %1
  call void @llvm.lifetime.start.p0(i64 4096, ptr nonnull %2) #25
  call void @llvm.lifetime.start.p0(i64 1025, ptr nonnull %3) #25
  %12 = tail call ptr @readdir(ptr noundef nonnull %10) #25
  %.not2733 = icmp eq ptr %12, null
  br i1 %.not2733, label %._crit_edge, label %.lr.ph

.lr.ph:                                           ; preds = %11, %40
  %.034 = phi ptr [ %41, %40 ], [ %12, %11 ]
  call void @llvm.lifetime.start.p0(i64 4, ptr nonnull %4) #25
  %13 = getelementptr inbounds nuw i8, ptr %.034, i64 19
  %14 = call i32 (ptr, ptr, ...) @__isoc99_sscanf(ptr noundef nonnull %13, ptr noundef nonnull @.str.41, ptr noundef nonnull %4) #25
  %15 = icmp eq i32 %14, 1
  %16 = load i32, ptr %4, align 4
  %17 = icmp ne i32 %16, 0
  %or.cond = select i1 %15, i1 %17, i1 false
  br i1 %or.cond, label %18, label %40

18:                                               ; preds = %.lr.ph
  call void @llvm.lifetime.start.p0(i64 144, ptr nonnull %5) #25
  %19 = call i32 (ptr, i64, ptr, ...) @snprintf(ptr noundef nonnull dereferenceable(1) %2, i64 noundef 4096, ptr noundef nonnull @.str.42, i32 noundef %16) #25
  %20 = call i32 @stat(ptr noundef nonnull %2, ptr noundef nonnull %5) #25
  %21 = icmp eq i32 %20, 0
  br i1 %21, label %22, label %39

22:                                               ; preds = %18
  %23 = call noalias ptr @fopen(ptr noundef nonnull %2, ptr noundef nonnull @.str.43)
  %.not28 = icmp eq ptr %23, null
  br i1 %.not28, label %39, label %24

24:                                               ; preds = %22
  %25 = call i64 @fread(ptr noundef nonnull %3, i64 noundef 1, i64 noundef 1024, ptr noundef nonnull %23)
  %26 = call i32 @fclose(ptr noundef nonnull %23)
  %27 = getelementptr inbounds nuw [1025 x i8], ptr %3, i64 0, i64 %25
  store i8 0, ptr %27, align 1, !tbaa !54
  %.not29 = icmp eq i64 %25, 0
  br i1 %.not29, label %39, label %28

28:                                               ; preds = %24
  %29 = call ptr @strrchr(ptr noundef nonnull dereferenceable(1) %3, i32 noundef 41) #26
  call void @llvm.lifetime.start.p0(i64 4, ptr nonnull %6) #25
  %.not30 = icmp eq ptr %29, null
  br i1 %.not30, label %38, label %30

30:                                               ; preds = %28
  %31 = getelementptr inbounds nuw i8, ptr %29, i64 1
  %32 = call i32 (ptr, ptr, ...) @__isoc99_sscanf(ptr noundef nonnull %31, ptr noundef nonnull @.str.44, ptr noundef nonnull %6) #25
  %33 = icmp eq i32 %32, 1
  %34 = load i32, ptr %6, align 4
  %35 = icmp eq i32 %34, %0
  %or.cond32 = select i1 %33, i1 %35, i1 false
  br i1 %or.cond32, label %36, label %38

36:                                               ; preds = %30
  %37 = load i32, ptr %4, align 4, !tbaa !35
  call fastcc void @kwsysProcessKill(i32 noundef %37)
  br label %38

38:                                               ; preds = %36, %30, %28
  call void @llvm.lifetime.end.p0(i64 4, ptr nonnull %6) #25
  br label %39

39:                                               ; preds = %22, %38, %24, %18
  call void @llvm.lifetime.end.p0(i64 144, ptr nonnull %5) #25
  br label %40

40:                                               ; preds = %39, %.lr.ph
  call void @llvm.lifetime.end.p0(i64 4, ptr nonnull %4) #25
  %41 = call ptr @readdir(ptr noundef nonnull %10) #25
  %.not27 = icmp eq ptr %41, null
  br i1 %.not27, label %._crit_edge, label %.lr.ph, !llvm.loop !126

._crit_edge:                                      ; preds = %40, %11
  %42 = call i32 @closedir(ptr noundef nonnull %10)
  call void @llvm.lifetime.end.p0(i64 1025, ptr nonnull %3) #25
  call void @llvm.lifetime.end.p0(i64 4096, ptr nonnull %2) #25
  br label %.critedge

43:                                               ; preds = %1
  %44 = tail call noalias ptr @popen(ptr noundef nonnull @.str.45, ptr noundef nonnull @.str.43)
  %.not25 = icmp eq ptr %44, null
  br i1 %.not25, label %.critedge, label %45

45:                                               ; preds = %43
  %46 = tail call i32 (ptr, ptr, ...) @__isoc99_fscanf(ptr noundef nonnull %44, ptr noundef nonnull @.str.46) #25
  %.not26 = icmp eq i32 %46, -1
  br i1 %.not26, label %57, label %47

47:                                               ; preds = %45
  call void @llvm.lifetime.start.p0(i64 4, ptr nonnull %7) #25
  call void @llvm.lifetime.start.p0(i64 4, ptr nonnull %8) #25
  %48 = call i32 (ptr, ptr, ...) @__isoc99_fscanf(ptr noundef nonnull %44, ptr noundef nonnull @.str.47, ptr noundef nonnull %7, ptr noundef nonnull %8) #25
  %49 = icmp eq i32 %48, 2
  br i1 %49, label %.lr.ph36, label %._crit_edge37

.lr.ph36:                                         ; preds = %47, %54
  %50 = load i32, ptr %8, align 4, !tbaa !35
  %51 = icmp eq i32 %50, %0
  br i1 %51, label %52, label %54

52:                                               ; preds = %.lr.ph36
  %53 = load i32, ptr %7, align 4, !tbaa !35
  call fastcc void @kwsysProcessKill(i32 noundef %53)
  br label %54

54:                                               ; preds = %52, %.lr.ph36
  %55 = call i32 (ptr, ptr, ...) @__isoc99_fscanf(ptr noundef nonnull %44, ptr noundef nonnull @.str.47, ptr noundef nonnull %7, ptr noundef nonnull %8) #25
  %56 = icmp eq i32 %55, 2
  br i1 %56, label %.lr.ph36, label %._crit_edge37, !llvm.loop !127

._crit_edge37:                                    ; preds = %54, %47
  call void @llvm.lifetime.end.p0(i64 4, ptr nonnull %8) #25
  call void @llvm.lifetime.end.p0(i64 4, ptr nonnull %7) #25
  br label %57

57:                                               ; preds = %45, %._crit_edge37
  %58 = call i32 @pclose(ptr noundef nonnull %44)
  br label %.critedge

.critedge:                                        ; preds = %57, %43, %._crit_edge
  %59 = call i32 @kill(i32 noundef %0, i32 noundef 9) #25
  ret void
}